target datalayout = "e-m:e-p270:32:32-p271:32:32-p272:64:64-i64:64-i128:128-f80:128-n8:16:32:64-S128"
target triple = "x86_64-pc-linux-gnu"

%struct.ERR_string_data_st = type { i64, ptr }

@err_string_lock = internal global ptr null, align 8
@int_error_hash = internal global ptr null, align 8
@err_string_init = internal global i32 0, align 4
@do_err_strings_init_ossl_ret_ = internal global i32 0, align 4
@.str.1 = private unnamed_addr constant [9 x i8] c"lib(%lu)\00", align 1
@.str.2 = private unnamed_addr constant [12 x i8] c"reason(%lu)\00", align 1
@.str.3 = private unnamed_addr constant [21 x i8] c"error:%08lX:%s:%s:%s\00", align 1
@.str.4 = private unnamed_addr constant [20 x i8] c"err:%lx:%lx:%lx:%lx\00", align 1

; Function Attrs: inlinehint nounwind uwtable
define internal ptr @ossl_check_const_ERR_STRING_DATA_lh_plain_type(ptr noundef %0) #2 {
  %2 = alloca ptr, align 8
  store ptr %0, ptr %2, align 8, !tbaa !19
  %3 = load ptr, ptr %2, align 8, !tbaa !19
  ret ptr %3
}

; Function Attrs: inlinehint nounwind uwtable
define internal ptr @ossl_check_ERR_STRING_DATA_lh_type(ptr noundef %0) #2 {
  %2 = alloca ptr, align 8
  store ptr %0, ptr %2, align 8, !tbaa !17
  %3 = load ptr, ptr %2, align 8, !tbaa !17
  ret ptr %3
}

; Function Attrs: nounwind uwtable
define internal ptr @int_err_get_item(ptr noundef %0) #0 {
  %2 = alloca ptr, align 8
  %3 = alloca ptr, align 8
  %4 = alloca ptr, align 8
  %5 = alloca i32, align 4
  store ptr %0, ptr %3, align 8, !tbaa !19
  call void @llvm.lifetime.start.p0(i64 8, ptr %4) #8
  store ptr null, ptr %4, align 8, !tbaa !19
  %6 = load ptr, ptr @err_string_lock, align 8, !tbaa !16
  %7 = call i32 @CRYPTO_THREAD_read_lock(ptr noundef %6)
  %8 = icmp ne i32 %7, 0
  br i1 %8, label %10, label %9

9:                                                ; preds = %1
  store ptr null, ptr %2, align 8
  store i32 1, ptr %5, align 4
  br label %19

10:                                               ; preds = %1
  %11 = load ptr, ptr @int_error_hash, align 8, !tbaa !17
  %12 = call ptr @ossl_check_ERR_STRING_DATA_lh_type(ptr noundef %11)
  %13 = load ptr, ptr %3, align 8, !tbaa !19
  %14 = call ptr @ossl_check_const_ERR_STRING_DATA_lh_plain_type(ptr noundef %13)
  %15 = call ptr @OPENSSL_LH_retrieve(ptr noundef %12, ptr noundef %14)
  store ptr %15, ptr %4, align 8, !tbaa !19
  %16 = load ptr, ptr @err_string_lock, align 8, !tbaa !16
  %17 = call i32 @CRYPTO_THREAD_unlock(ptr noundef %16)
  %18 = load ptr, ptr %4, align 8, !tbaa !19
  store ptr %18, ptr %2, align 8
  store i32 1, ptr %5, align 4
  br label %19

19:                                               ; preds = %10, %9
  call void @llvm.lifetime.end.p0(i64 8, ptr %4) #8
  %20 = load ptr, ptr %2, align 8
  ret ptr %20
}

; Function Attrs: inlinehint nounwind uwtable
define internal i32 @ERR_GET_REASON(i64 noundef %0) #2 {
  %2 = alloca i32, align 4
  %3 = alloca i64, align 8
  store i64 %0, ptr %3, align 8, !tbaa !12
  %4 = load i64, ptr %3, align 8, !tbaa !12
  %5 = and i64 %4, 2147483648
  %6 = icmp ne i64 %5, 0
  br i1 %6, label %7, label %11

7:                                                ; preds = %1
  %8 = load i64, ptr %3, align 8, !tbaa !12
  %9 = and i64 %8, 2147483647
  %10 = trunc i64 %9 to i32
  store i32 %10, ptr %2, align 4
  br label %15

11:                                               ; preds = %1
  %12 = load i64, ptr %3, align 8, !tbaa !12
  %13 = and i64 %12, 8388607
  %14 = trunc i64 %13 to i32
  store i32 %14, ptr %2, align 4
  br label %15

15:                                               ; preds = %11, %7
  %16 = load i32, ptr %2, align 4
  ret i32 %16
}

; Function Attrs: nounwind uwtable
define ptr @ERR_lib_error_string(i64 noundef %0) #0 {
  %2 = alloca ptr, align 8
  %3 = alloca i64, align 8
  %4 = alloca %struct.ERR_string_data_st, align 8
  %5 = alloca ptr, align 8
  %6 = alloca i64, align 8
  %7 = alloca i32, align 4
  store i64 %0, ptr %3, align 8, !tbaa !12
  call void @llvm.lifetime.start.p0(i64 16, ptr %4) #8
  call void @llvm.lifetime.start.p0(i64 8, ptr %5) #8
  call void @llvm.lifetime.start.p0(i64 8, ptr %6) #8
  %8 = call i32 @CRYPTO_THREAD_run_once(ptr noundef @err_string_init, ptr noundef @do_err_strings_init_ossl_)
  %9 = icmp ne i32 %8, 0
  br i1 %9, label %10, label %13

10:                                               ; preds = %1
  %11 = load i32, ptr @do_err_strings_init_ossl_ret_, align 4, !tbaa !8
  %12 = icmp ne i32 %11, 0
  br i1 %12, label %15, label %14

13:                                               ; preds = %1
  br i1 false, label %15, label %14

14:                                               ; preds = %13, %10
  store ptr null, ptr %2, align 8
  store i32 1, ptr %7, align 4
  br label %34

15:                                               ; preds = %13, %10
  %16 = load i64, ptr %3, align 8, !tbaa !12
  %17 = call i32 @ERR_GET_LIB(i64 noundef %16)
  %18 = sext i32 %17 to i64
  store i64 %18, ptr %6, align 8, !tbaa !12
  %19 = load i64, ptr %6, align 8, !tbaa !12
  %20 = and i64 %19, 255
  %21 = shl i64 %20, 23
  %22 = or i64 %21, 0
  %23 = getelementptr inbounds nuw %struct.ERR_string_data_st, ptr %4, i32 0, i32 0
  store i64 %22, ptr %23, align 8, !tbaa !21
  %24 = call ptr @int_err_get_item(ptr noundef %4)
  store ptr %24, ptr %5, align 8, !tbaa !19
  %25 = load ptr, ptr %5, align 8, !tbaa !19
  %26 = icmp eq ptr %25, null
  br i1 %26, label %27, label %28

27:                                               ; preds = %15
  br label %32

28:                                               ; preds = %15
  %29 = load ptr, ptr %5, align 8, !tbaa !19
  %30 = getelementptr inbounds nuw %struct.ERR_string_data_st, ptr %29, i32 0, i32 1
  %31 = load ptr, ptr %30, align 8, !tbaa !35
  br label %32

32:                                               ; preds = %28, %27
  %33 = phi ptr [ null, %27 ], [ %31, %28 ]
  store ptr %33, ptr %2, align 8
  store i32 1, ptr %7, align 4
  br label %34

34:                                               ; preds = %32, %14
  call void @llvm.lifetime.end.p0(i64 8, ptr %6) #8
  call void @llvm.lifetime.end.p0(i64 8, ptr %5) #8
  call void @llvm.lifetime.end.p0(i64 16, ptr %4) #8
  %35 = load ptr, ptr %2, align 8
  ret ptr %35
}

; Function Attrs: inlinehint nounwind uwtable
define internal i32 @ERR_GET_LIB(i64 noundef %0) #2 {
  %2 = alloca i32, align 4
  %3 = alloca i64, align 8
  store i64 %0, ptr %3, align 8, !tbaa !12
  %4 = load i64, ptr %3, align 8, !tbaa !12
  %5 = and i64 %4, 2147483648
  %6 = icmp ne i64 %5, 0
  br i1 %6, label %7, label %8

7:                                                ; preds = %1
  store i32 2, ptr %2, align 4
  br label %13

8:                                                ; preds = %1
  %9 = load i64, ptr %3, align 8, !tbaa !12
  %10 = lshr i64 %9, 23
  %11 = and i64 %10, 255
  %12 = trunc i64 %11 to i32
  store i32 %12, ptr %2, align 4
  br label %13

13:                                               ; preds = %8, %7
  %14 = load i32, ptr %2, align 4
  ret i32 %14
}

; Function Attrs: nounwind uwtable
define void @ossl_err_string_int(i64 noundef %0, ptr noundef %1, ptr noundef %2, i64 noundef %3) #0 {
  %5 = alloca i64, align 8
  %6 = alloca ptr, align 8
  %7 = alloca ptr, align 8
  %8 = alloca i64, align 8
  %9 = alloca [64 x i8], align 16
  %10 = alloca [256 x i8], align 16
  %11 = alloca ptr, align 8
  %12 = alloca ptr, align 8
  %13 = alloca i64, align 8
  %14 = alloca i64, align 8
  %15 = alloca i32, align 4
  store i64 %0, ptr %5, align 8, !tbaa !12
  store ptr %1, ptr %6, align 8, !tbaa !14
  store ptr %2, ptr %7, align 8, !tbaa !14
  store i64 %3, ptr %8, align 8, !tbaa !12
  call void @llvm.lifetime.start.p0(i64 64, ptr %9) #8
  call void @llvm.lifetime.start.p0(i64 256, ptr %10) #8
  call void @llvm.lifetime.start.p0(i64 8, ptr %11) #8
  call void @llvm.lifetime.start.p0(i64 8, ptr %12) #8
  store ptr null, ptr %12, align 8, !tbaa !14
  call void @llvm.lifetime.start.p0(i64 8, ptr %13) #8
  call void @llvm.lifetime.start.p0(i64 8, ptr %14) #8
  %16 = load i64, ptr %8, align 8, !tbaa !12
  %17 = icmp eq i64 %16, 0
  br i1 %17, label %18, label %19

18:                                               ; preds = %4
  store i32 1, ptr %15, align 4
  br label %81

19:                                               ; preds = %4
  %20 = load i64, ptr %5, align 8, !tbaa !12
  %21 = call i32 @ERR_GET_LIB(i64 noundef %20)
  %22 = sext i32 %21 to i64
  store i64 %22, ptr %13, align 8, !tbaa !12
  %23 = load i64, ptr %5, align 8, !tbaa !12
  %24 = call ptr @ERR_lib_error_string(i64 noundef %23)
  store ptr %24, ptr %11, align 8, !tbaa !14
  %25 = load ptr, ptr %11, align 8, !tbaa !14
  %26 = icmp eq ptr %25, null
  br i1 %26, label %27, label %32

27:                                               ; preds = %19
  %28 = getelementptr inbounds [64 x i8], ptr %9, i64 0, i64 0
  %29 = load i64, ptr %13, align 8, !tbaa !12
  %30 = call i32 (ptr, i64, ptr, ...) @BIO_snprintf(ptr noundef %28, i64 noundef 64, ptr noundef @.str.1, i64 noundef %29)
  %31 = getelementptr inbounds [64 x i8], ptr %9, i64 0, i64 0
  store ptr %31, ptr %11, align 8, !tbaa !14
  br label %32

32:                                               ; preds = %27, %19
  %33 = load i64, ptr %5, align 8, !tbaa !12
  %34 = call i32 @ERR_GET_REASON(i64 noundef %33)
  %35 = sext i32 %34 to i64
  store i64 %35, ptr %14, align 8, !tbaa !12
  %36 = load i64, ptr %5, align 8, !tbaa !12
  %37 = and i64 %36, 2147483648
  %38 = icmp ne i64 %37, 0
  br i1 %38, label %39, label %48

39:                                               ; preds = %32
  %40 = load i64, ptr %14, align 8, !tbaa !12
  %41 = trunc i64 %40 to i32
  %42 = getelementptr inbounds [256 x i8], ptr %10, i64 0, i64 0
  %43 = call i32 @openssl_strerror_r(i32 noundef %41, ptr noundef %42, i64 noundef 256)
  %44 = icmp ne i32 %43, 0
  br i1 %44, label %45, label %47

45:                                               ; preds = %39
  %46 = getelementptr inbounds [256 x i8], ptr %10, i64 0, i64 0
  store ptr %46, ptr %12, align 8, !tbaa !14
  br label %47

47:                                               ; preds = %45, %39
  br label %51

48:                                               ; preds = %32
  %49 = load i64, ptr %5, align 8, !tbaa !12
  %50 = call ptr @ERR_reason_error_string(i64 noundef %49)
  store ptr %50, ptr %12, align 8, !tbaa !14
  br label %51

51:                                               ; preds = %48, %47
  %52 = load ptr, ptr %12, align 8, !tbaa !14
  %53 = icmp eq ptr %52, null
  br i1 %53, label %54, label %60

54:                                               ; preds = %51
  %55 = getelementptr inbounds [256 x i8], ptr %10, i64 0, i64 0
  %56 = load i64, ptr %14, align 8, !tbaa !12
  %57 = and i64 %56, -8126465
  %58 = call i32 (ptr, i64, ptr, ...) @BIO_snprintf(ptr noundef %55, i64 noundef 256, ptr noundef @.str.2, i64 noundef %57)
  %59 = getelementptr inbounds [256 x i8], ptr %10, i64 0, i64 0
  store ptr %59, ptr %12, align 8, !tbaa !14
  br label %60

60:                                               ; preds = %54, %51
  %61 = load ptr, ptr %7, align 8, !tbaa !14
  %62 = load i64, ptr %8, align 8, !tbaa !12
  %63 = load i64, ptr %5, align 8, !tbaa !12
  %64 = load ptr, ptr %11, align 8, !tbaa !14
  %65 = load ptr, ptr %6, align 8, !tbaa !14
  %66 = load ptr, ptr %12, align 8, !tbaa !14
  %67 = call i32 (ptr, i64, ptr, ...) @BIO_snprintf(ptr noundef %61, i64 noundef %62, ptr noundef @.str.3, i64 noundef %63, ptr noundef %64, ptr noundef %65, ptr noundef %66)
  %68 = load ptr, ptr %7, align 8, !tbaa !14
  %69 = call i64 @strlen(ptr noundef %68) #10
  %70 = load i64, ptr %8, align 8, !tbaa !12
  %71 = sub i64 %70, 1
  %72 = icmp eq i64 %69, %71
  br i1 %72, label %73, label %80

73:                                               ; preds = %60
  %74 = load ptr, ptr %7, align 8, !tbaa !14
  %75 = load i64, ptr %8, align 8, !tbaa !12
  %76 = load i64, ptr %5, align 8, !tbaa !12
  %77 = load i64, ptr %13, align 8, !tbaa !12
  %78 = load i64, ptr %14, align 8, !tbaa !12
  %79 = call i32 (ptr, i64, ptr, ...) @BIO_snprintf(ptr noundef %74, i64 noundef %75, ptr noundef @.str.4, i64 noundef %76, i64 noundef %77, i64 noundef 0, i64 noundef %78)
  br label %80

80:                                               ; preds = %73, %60
  store i32 0, ptr %15, align 4
  br label %81

81:                                               ; preds = %80, %18
  call void @llvm.lifetime.end.p0(i64 8, ptr %14) #8
  call void @llvm.lifetime.end.p0(i64 8, ptr %13) #8
  call void @llvm.lifetime.end.p0(i64 8, ptr %12) #8
  call void @llvm.lifetime.end.p0(i64 8, ptr %11) #8
  call void @llvm.lifetime.end.p0(i64 256, ptr %10) #8
  call void @llvm.lifetime.end.p0(i64 64, ptr %9) #8
  %82 = load i32, ptr %15, align 4
  switch i32 %82, label %84 [
    i32 0, label %83
    i32 1, label %83
  ]

83:                                               ; preds = %81, %81
  ret void

84:                                               ; preds = %81
  unreachable
}