; Function Attrs: nounwind uwtable
define void @ossl_err_string_int(i64 noundef %0, ptr noundef %1, ptr noundef %2, i64 noundef %3) local_unnamed_addr #0 {
  %5 = alloca %struct.ERR_string_data_st, align 8
  %6 = alloca [64 x i8], align 16
  %7 = alloca [256 x i8], align 16
  call void @llvm.lifetime.start.p0(i64 64, ptr nonnull %6) #10
  call void @llvm.lifetime.start.p0(i64 256, ptr nonnull %7) #10
  %8 = icmp eq i64 %3, 0
  br i1 %8, label %49, label %9

9:                                                ; preds = %4
  %10 = and i64 %0, 2147483648
  %.not.i = icmp eq i64 %10, 0
  %11 = trunc i64 %0 to i32
  %12 = lshr i64 %0, 23
  %13 = and i64 %12, 511
  %14 = select i1 %.not.i, i64 %13, i64 2
  call void @llvm.lifetime.start.p0(i64 16, ptr nonnull %5) #10
  %15 = tail call i32 @CRYPTO_THREAD_run_once(ptr noundef nonnull @err_string_init, ptr noundef nonnull @do_err_strings_init_ossl_) #10
  %16 = icmp ne i32 %15, 0
  %17 = load i32, ptr @do_err_strings_init_ossl_ret_, align 4
  %18 = icmp ne i32 %17, 0
  %or.cond.i = select i1 %16, i1 %18, i1 false
  br i1 %or.cond.i, label %19, label %ERR_lib_error_string.exit.thread

19:                                               ; preds = %9
  %20 = and i64 %0, 4286578688
  %21 = select i1 %.not.i, i64 %20, i64 16777216
  store i64 %21, ptr %5, align 8, !tbaa !17
  %22 = load ptr, ptr @err_string_lock, align 8, !tbaa !14
  %23 = tail call i32 @CRYPTO_THREAD_read_lock(ptr noundef %22) #10
  %.not.i6.i = icmp eq i32 %23, 0
  br i1 %.not.i6.i, label %ERR_lib_error_string.exit.thread, label %int_err_get_item.exit.i

int_err_get_item.exit.i:                          ; preds = %19
  %24 = load ptr, ptr @int_error_hash, align 8, !tbaa !15
  %25 = call ptr @OPENSSL_LH_retrieve(ptr noundef %24, ptr noundef nonnull %5) #10
  %26 = load ptr, ptr @err_string_lock, align 8, !tbaa !14
  %27 = call i32 @CRYPTO_THREAD_unlock(ptr noundef %26) #10
  %28 = icmp eq ptr %25, null
  br i1 %28, label %ERR_lib_error_string.exit.thread, label %ERR_lib_error_string.exit

ERR_lib_error_string.exit.thread:                 ; preds = %9, %int_err_get_item.exit.i, %19
  call void @llvm.lifetime.end.p0(i64 16, ptr nonnull %5) #10
  br label %32

ERR_lib_error_string.exit:                        ; preds = %int_err_get_item.exit.i
  %29 = getelementptr inbounds nuw i8, ptr %25, i64 8
  %30 = load ptr, ptr %29, align 8, !tbaa !28
  call void @llvm.lifetime.end.p0(i64 16, ptr nonnull %5) #10
  %31 = icmp eq ptr %30, null
  br i1 %31, label %32, label %34

32:                                               ; preds = %ERR_lib_error_string.exit.thread, %ERR_lib_error_string.exit
  %33 = call i32 (ptr, i64, ptr, ...) @BIO_snprintf(ptr noundef nonnull %6, i64 noundef 64, ptr noundef nonnull @.str.1, i64 noundef %14) #10
  br label %34

34:                                               ; preds = %32, %ERR_lib_error_string.exit
  %.0 = phi ptr [ %6, %32 ], [ %30, %ERR_lib_error_string.exit ]
  %.0.v.i = select i1 %.not.i, i32 8388607, i32 2147483647
  %.0.i29 = and i32 %.0.v.i, %11
  %35 = zext nneg i32 %.0.i29 to i64
  br i1 %.not.i, label %38, label %36

36:                                               ; preds = %34
  %37 = call i32 @openssl_strerror_r(i32 noundef %.0.i29, ptr noundef nonnull %7, i64 noundef 256) #10
  %.not26 = icmp eq i32 %37, 0
  br i1 %.not26, label %.thread, label %.thread32

38:                                               ; preds = %34
  %39 = call ptr @ERR_reason_error_string(i64 noundef %0)
  %40 = icmp eq ptr %39, null
  br i1 %40, label %.thread, label %.thread32

.thread:                                          ; preds = %36, %38
  %41 = and i64 %35, 2139357183
  %42 = call i32 (ptr, i64, ptr, ...) @BIO_snprintf(ptr noundef nonnull %7, i64 noundef 256, ptr noundef nonnull @.str.2, i64 noundef %41) #10
  br label %.thread32

.thread32:                                        ; preds = %36, %.thread, %38
  %.1 = phi ptr [ %7, %.thread ], [ %39, %38 ], [ %7, %36 ]
  %43 = call i32 (ptr, i64, ptr, ...) @BIO_snprintf(ptr noundef %2, i64 noundef %3, ptr noundef nonnull @.str.3, i64 noundef %0, ptr noundef nonnull %.0, ptr noundef %1, ptr noundef nonnull %.1) #10
  %44 = call i64 @strlen(ptr noundef nonnull dereferenceable(1) %2) #12
  %45 = add i64 %3, -1
  %46 = icmp eq i64 %44, %45
  br i1 %46, label %47, label %49

47:                                               ; preds = %.thread32
  %48 = call i32 (ptr, i64, ptr, ...) @BIO_snprintf(ptr noundef nonnull %2, i64 noundef %3, ptr noundef nonnull @.str.4, i64 noundef %0, i64 noundef %14, i64 noundef 0, i64 noundef %35) #10
  br label %49

49:                                               ; preds = %.thread32, %47, %4
  call void @llvm.lifetime.end.p0(i64 256, ptr nonnull %7) #10
  call void @llvm.lifetime.end.p0(i64 64, ptr nonnull %6) #10
  ret void
}